"File: holtek_lcd.c  Assembler  Version HGASM0202      Page 1


   1  0000              ; Generated by holtek-gcc v3.17, Tue Mar 27 13:12:42 2018
   2  0000              ; 
   3  0000              ; Configuration:
   4  0000              ;       without long instruction
   5  0000              ;       Single ROM, Multi-RAM
   6  0000              ;       bits_per_rom_unit:16
   7  0000              ;       with mp1
   8  0000              ;       with tbhp, address(0x9)
   9  0000              ;          Use tabrd-const
  10  0000              ;       
  11  0000              ;       
  12  0000              ;       
  13  0000              ; use 'tabrdc' instead of 'tabrd'
  14  0000              ;       
  15  0000              
  16  0000              #pragma translator "holtek-gcc 4.6.4" "3.17" "build 20130711"
  17  0000              ; Rebuild 307
  18  0000              
  19  0000              ir equ [2]
  20  0000              mp equ [3]
  21  0000              sbp equ [1]
  22  0000              acc equ [5]
  23  0000              bp equ [4]
  24  0000              tblp equ [7]
  25  0000              tbhp equ [9]
  26  0000              status equ [10]
  27  0000              c equ [10].0
  28  0000              ac equ [10].1
  29  0000              z equ [10].2
  30  0000              ov equ [10].3
  31  0000              intc equ [11]
  32  0000              
  33  0000              extern ra:byte
  34  0000              extern rb:byte
  35  0000              extern rc:byte
  36  0000              extern rd:byte
  37  0000              extern re:byte
  38  0000              extern rf:byte
  39  0000              extern rg:byte
  40  0000              extern rh:byte
  41  0000              extern _Crom2Prom:near
  42  0000              extern _Crom2PromNext:near
  43  0000              
  44  0000              RAMBANK 0 @HCCINIT, @HCCINIT0
  45  0000              
  46  0000              RAMBANK 0 @BITDATASEC, @BITDATASEC1
  47  0000              @HCCINIT	.section 'data'
  48  0000              @HCCINIT0	.section 'data'
  49  0000              @BITDATASEC	 .section 'data'
  50  0000              @BITDATASEC1	 .section 'data'
  51  0000              
  52  0000              #pragma debug scope 1 1
  53  0000              	extern __DELAY3:near
  54  0000              	extern __DELAYX3:near
  55  0000              	extern __DELAYX6:near
  56  0000              	extern __DELAYY5:near
  57  0000              	extern __DELAYY3:near
  58  0000              	extern _builtin_holtek_delay_2:byte
  59  0000              ___pdc equ [36]
"File: holtek_lcd.ASM  Assembler  Version HGASM0202      Page 2

  60  0000              ___pe equ [38]
  61  0000              ___pd equ [35]
  62  0000              public _LCD_Write
  63  0000              #pragma debug scope 2 1

  44  0000              #line 44 "C:\Users\L0614\Desktop\Holtek\Holtek-HT66F70A-LCD\holtek_lcd\holtek_lcd\holtek_lcd.c"
  44  0000              _LCD_Write .section 'code'
  44  0000              _LCD_Write proc
  44  0000              public _LCD_Write_2
  44  0000  0002[           local _LCD_Write_2 db 2 dup(?)	; 1,1
            00
            ]
  44  0000  0080     R  	mov _LCD_Write_2[1],a
  44  0001              #pragma debug variable 8 2 _LCD_Write_2+1 "DCFlag"
  44  0001              #pragma debug variable 8 2 _LCD_Write_2+0 "CD"
  45  0001              #line 45 "C:\Users\L0614\Desktop\Holtek\Holtek-HT66F70A-LCD\holtek_lcd\holtek_lcd\holtek_lcd.c"
  45  0001  1F24        	clr [36]
  46  0002              #line 46 "C:\Users\L0614\Desktop\Holtek\Holtek-HT66F70A-LCD\holtek_lcd\holtek_lcd\holtek_lcd.c"
  46  0002  3526        	clr [38].2
  47  0003              #line 47 "C:\Users\L0614\Desktop\Holtek\Holtek-HT66F70A-LCD\holtek_lcd\holtek_lcd\holtek_lcd.c"
  47  0003  0700     R  	mov a,_LCD_Write_2[1]
  47  0004  0E01        	and a,1
  47  0005  0080     E  	mov ra,a
  47  0006  0700     E  	mov a,ra
  47  0007  0380     E  	addm a,ra
  47  0008  34A6        	clr [38].1
  47  0009  0700     E  	mov a,ra
  47  000A  05A6        	orm a,[38]
  48  000B              #line 48 "C:\Users\L0614\Desktop\Holtek\Holtek-HT66F70A-LCD\holtek_lcd\holtek_lcd\holtek_lcd.c"
  48  000B  0700     R  	mov a,_LCD_Write_2[0]
  48  000C  00A3        	mov [35],a
  49  000D              #line 49 "C:\Users\L0614\Desktop\Holtek\Holtek-HT66F70A-LCD\holtek_lcd\holtek_lcd\holtek_lcd.c"
  49  000D  3026        	set [38].0
  49  000E              ;# 49 "C:\Users\L0614\Desktop\Holtek\Holtek-HT66F70A-LCD\holtek_lcd\holtek_lcd\holtek_lcd.c" 1
  49  000E  0000        	nop
  49  000F  3426        	clr [38].0
  50  0010              #line 50 "C:\Users\L0614\Desktop\Holtek\Holtek-HT66F70A-LCD\holtek_lcd\holtek_lcd\holtek_lcd.c"
  50  0010  0700     R  	mov a,_LCD_Write_2[0]
  50  0011  0080     E  	mov ra,a
  50  0012  1100     E  	swapa ra
  50  0013  0EF0        	and a,0f0h 
  50  0014  0080     E  	mov ra,a
  50  0015  0700     E  	mov a,ra
  50  0016  00A3        	mov [35],a
  51  0017              #line 51 "C:\Users\L0614\Desktop\Holtek\Holtek-HT66F70A-LCD\holtek_lcd\holtek_lcd\holtek_lcd.c"
  51  0017  3026        	set [38].0
  51  0018              ;# 51 "C:\Users\L0614\Desktop\Holtek\Holtek-HT66F70A-LCD\holtek_lcd\holtek_lcd\holtek_lcd.c" 1
  51  0018  0000        	nop
  51  0019  3426        	clr [38].0
  51  001A  0003        	ret
  51  001B              _LCD_Write endp
  51  001B              #line 51 "C:\Users\L0614\Desktop\Holtek\Holtek-HT66F70A-LCD\holtek_lcd\holtek_lcd\holtek_lcd.c"
  51  001B              #pragma debug scope 1 1
  51  001B              ___pec equ [39]
  51  001B              public _LCD_Init
  51  001B              #pragma debug scope 3 1
  35  001B              #line 35 "C:\Users\L0614\Desktop\Holtek\Holtek-HT66F70A-LCD\holtek_lcd\holtek_lcd\holtek_lcd.c"
  35  0000              _LCD_Init .section 'code'
  35  0000              _LCD_Init proc
  35  0000  3426        	clr [38].0
"File: holtek_lcd.c  Assembler  Version HGASM0202      Page 3

  35  0001  3526        	clr [38].2
  35  0002  34A6        	clr [38].1
  36  0003              #line 36 "C:\Users\L0614\Desktop\Holtek\Holtek-HT66F70A-LCD\holtek_lcd\holtek_lcd\holtek_lcd.c"
  36  0003  3427        	clr [39].0
  36  0004  3527        	clr [39].2
  36  0005  34A7        	clr [39].1
  37  0006              #line 37 "C:\Users\L0614\Desktop\Holtek\Holtek-HT66F70A-LCD\holtek_lcd\holtek_lcd\holtek_lcd.c"
  37  0006              ;# 37 "C:\Users\L0614\Desktop\Holtek\Holtek-HT66F70A-LCD\holtek_lcd\holtek_lcd\holtek_lcd.c" 1
  37  0006              	IF 50000>263690
  37  0006              ;# 37 "C:\Users\L0614\Desktop\Holtek\Holtek-HT66F70A-LCD\holtek_lcd\holtek_lcd\holtek_lcd.c" 1
  37  0006              	ERRMESSAGE 'the value 50000of the argument exceeds the maxinum 263690'
  37  0006              	ENDIF
  37  0006              ;# 37 "C:\Users\L0614\Desktop\Holtek\Holtek-HT66F70A-LCD\holtek_lcd\holtek_lcd\holtek_lcd.c" 1
  37  0006              	IF 50000<0
  37  0006              ;# 37 "C:\Users\L0614\Desktop\Holtek\Holtek-HT66F70A-LCD\holtek_lcd\holtek_lcd\holtek_lcd.c" 1
  37  0006              	ERRMESSAGE 'the value 50000 of the argument exceeds the mininum 0'
  37  0006              	ENDIF
  37  0006              ;# 37 "C:\Users\L0614\Desktop\Holtek\Holtek-HT66F70A-LCD\holtek_lcd\holtek_lcd\holtek_lcd.c" 1
  37  0006              	IF 50000==0
  37  0006              ;# 37 "C:\Users\L0614\Desktop\Holtek\Holtek-HT66F70A-LCD\holtek_lcd\holtek_lcd\holtek_lcd.c" 1
  37  0006              	JMP $
  37  0006              	ENDIF
  37  0006              ;# 37 "C:\Users\L0614\Desktop\Holtek\Holtek-HT66F70A-LCD\holtek_lcd\holtek_lcd\holtek_lcd.c" 1
  37  0006              	IF 50000==1
  37  0006              ;# 37 "C:\Users\L0614\Desktop\Holtek\Holtek-HT66F70A-LCD\holtek_lcd\holtek_lcd\holtek_lcd.c" 1
  37  0006              	NOP
  37  0006              	ENDIF
  37  0006              ;# 37 "C:\Users\L0614\Desktop\Holtek\Holtek-HT66F70A-LCD\holtek_lcd\holtek_lcd\holtek_lcd.c" 1
  37  0006              	IF 50000==2
  37  0006              ;# 37 "C:\Users\L0614\Desktop\Holtek\Holtek-HT66F70A-LCD\holtek_lcd\holtek_lcd\holtek_lcd.c" 1
  37  0006              	NOP
  37  0006              ;# 37 "C:\Users\L0614\Desktop\Holtek\Holtek-HT66F70A-LCD\holtek_lcd\holtek_lcd\holtek_lcd.c" 1
  37  0006              	NOP
  37  0006              	ENDIF
  37  0006              ;# 37 "C:\Users\L0614\Desktop\Holtek\Holtek-HT66F70A-LCD\holtek_lcd\holtek_lcd\holtek_lcd.c" 1
  37  0006              	IF 50000==3
  37  0006              ;# 37 "C:\Users\L0614\Desktop\Holtek\Holtek-HT66F70A-LCD\holtek_lcd\holtek_lcd\holtek_lcd.c" 1
  37  0006              	NOP
  37  0006              ;# 37 "C:\Users\L0614\Desktop\Holtek\Holtek-HT66F70A-LCD\holtek_lcd\holtek_lcd\holtek_lcd.c" 1
  37  0006              	NOP
  37  0006              ;# 37 "C:\Users\L0614\Desktop\Holtek\Holtek-HT66F70A-LCD\holtek_lcd\holtek_lcd\holtek_lcd.c" 1
  37  0006              	NOP
  37  0006              	ENDIF
  37  0006              ;# 37 "C:\Users\L0614\Desktop\Holtek\Holtek-HT66F70A-LCD\holtek_lcd\holtek_lcd\holtek_lcd.c" 1
  37  0006              	IF (50000<8) AND (50000>3)
  37  0006              ;# 37 "C:\Users\L0614\Desktop\Holtek\Holtek-HT66F70A-LCD\holtek_lcd\holtek_lcd\holtek_lcd.c" 1
  37  0006              	CALL __DELAY3 + 7 -50000
  37  0006              	ENDIF
  37  0006              ;# 37 "C:\Users\L0614\Desktop\Holtek\Holtek-HT66F70A-LCD\holtek_lcd\holtek_lcd\holtek_lcd.c" 1
  37  0006              	IF (50000< 0404h) AND (50000>7)
  37  0006              ;# 37 "C:\Users\L0614\Desktop\Holtek\Holtek-HT66F70A-LCD\holtek_lcd\holtek_lcd\holtek_lcd.c" 1
  37  0006              	MOV A,50000/4-1
  37  0006              ;# 37 "C:\Users\L0614\Desktop\Holtek\Holtek-HT66F70A-LCD\holtek_lcd\holtek_lcd\holtek_lcd.c" 1
  37  0006              	CALL __DELAYX3 + 3 -(50000 MOD 4)
  37  0006              	ENDIF
  37  0006              ;# 37 "C:\Users\L0614\Desktop\Holtek\Holtek-HT66F70A-LCD\holtek_lcd\holtek_lcd\holtek_lcd.c" 1
  37  0006              	IF (50000< 0x40B) AND (50000> 0403h)
  37  0006              ;# 37 "C:\Users\L0614\Desktop\Holtek\Holtek-HT66F70A-LCD\holtek_lcd\holtek_lcd\holtek_lcd.c" 1
  37  0006              	MOV A,0 
  37  0006              ;# 37 "C:\Users\L0614\Desktop\Holtek\Holtek-HT66F70A-LCD\holtek_lcd\holtek_lcd\holtek_lcd.c" 1
"File: holtek_lcd.c  Assembler  Version HGASM0202      Page 4

  37  0006              	CALL __DELAYX6 + 0x40a -50000
  37  0006              	ENDIF
  37  0006              ;# 37 "C:\Users\L0614\Desktop\Holtek\Holtek-HT66F70A-LCD\holtek_lcd\holtek_lcd\holtek_lcd.c" 1
  37  0006              	IF (50000 >= 0x40b) AND ((((50000-9)%0402h)/4+1)>256)
  37  0006              ;# 37 "C:\Users\L0614\Desktop\Holtek\Holtek-HT66F70A-LCD\holtek_lcd\holtek_lcd\holtek_lcd.c" 1
  37  0006              	MOV A,(50000-9)/0402h
  37  0006              ;# 37 "C:\Users\L0614\Desktop\Holtek\Holtek-HT66F70A-LCD\holtek_lcd\holtek_lcd\holtek_lcd.c" 1
  37  0006              	MOV _builtin_holtek_delay_2,A
  37  0006              ;# 37 "C:\Users\L0614\Desktop\Holtek\Holtek-HT66F70A-LCD\holtek_lcd\holtek_lcd\holtek_lcd.c" 1
  37  0006              	MOV A,0
  37  0006              ;# 37 "C:\Users\L0614\Desktop\Holtek\Holtek-HT66F70A-LCD\holtek_lcd\holtek_lcd\holtek_lcd.c" 1
  37  0006              	CALL __DELAYY5 +5- (((50000-9)%0402h)%6)
  37  0006              	ENDIF
  37  0006              ;# 37 "C:\Users\L0614\Desktop\Holtek\Holtek-HT66F70A-LCD\holtek_lcd\holtek_lcd\holtek_lcd.c" 1
  37  0006              	IF (50000 >= 0x40b) AND ((((50000-9)%0402h)/4+1)<=256)
  37  0006              ;# 37 "C:\Users\L0614\Desktop\Holtek\Holtek-HT66F70A-LCD\holtek_lcd\holtek_lcd\holtek_lcd.c" 1
  37  0006  0F30        	MOV A,(50000-9)/0402h
  37  0007              ;# 37 "C:\Users\L0614\Desktop\Holtek\Holtek-HT66F70A-LCD\holtek_lcd\holtek_lcd\holtek_lcd.c" 1
  37  0007  0080     E  	MOV _builtin_holtek_delay_2,A
  37  0008              ;# 37 "C:\Users\L0614\Desktop\Holtek\Holtek-HT66F70A-LCD\holtek_lcd\holtek_lcd\holtek_lcd.c" 1
  37  0008  0FBA        	MOV A,((50000-9)%0402h)/4+1
  37  0009              ;# 37 "C:\Users\L0614\Desktop\Holtek\Holtek-HT66F70A-LCD\holtek_lcd\holtek_lcd\holtek_lcd.c" 1
  37  0009  2000     E  	CALL __DELAYY3 +3-(((50000-9)%0402h)%4)
  37  000A              	ENDIF
  38  000A              #line 38 "C:\Users\L0614\Desktop\Holtek\Holtek-HT66F70A-LCD\holtek_lcd\holtek_lcd\holtek_lcd.c"
  38  000A  0F28        	mov a,40
  38  000B  0080     R  	mov _LCD_Write_2[0],a
  38  000C  0F00        	mov a,0
  38  000D  2000     R  	call _LCD_Write
  39  000E              #line 39 "C:\Users\L0614\Desktop\Holtek\Holtek-HT66F70A-LCD\holtek_lcd\holtek_lcd\holtek_lcd.c"
  39  000E  0F0F        	mov a,15
  39  000F  0080     R  	mov _LCD_Write_2[0],a
  39  0010  0F00        	mov a,0
  39  0011  2000     R  	call _LCD_Write
  40  0012              #line 40 "C:\Users\L0614\Desktop\Holtek\Holtek-HT66F70A-LCD\holtek_lcd\holtek_lcd\holtek_lcd.c"
  40  0012  0F06        	mov a,6
  40  0013  0080     R  	mov _LCD_Write_2[0],a
  40  0014  0F00        	mov a,0
  40  0015  2000     R  	call _LCD_Write
  41  0016              #line 41 "C:\Users\L0614\Desktop\Holtek\Holtek-HT66F70A-LCD\holtek_lcd\holtek_lcd\holtek_lcd.c"
  41  0016  0F01        	mov a,1
  41  0017  0080     R  	mov _LCD_Write_2[0],a
  41  0018  0F00        	mov a,0
  41  0019  2000     R  	call _LCD_Write
  41  001A  0003        	ret
  41  001B              _LCD_Init endp
  41  001B              #line 41 "C:\Users\L0614\Desktop\Holtek\Holtek-HT66F70A-LCD\holtek_lcd\holtek_lcd\holtek_lcd.c"
  41  001B              #pragma debug scope 1 1
  41  001B              #pragma debug scope 4 1
  59  001B              #line 59 "C:\Users\L0614\Desktop\Holtek\Holtek-HT66F70A-LCD\holtek_lcd\holtek_lcd\holtek_lcd.c"
  59  0000              _Str_To_Lcd .section 'code'
  59  0000              _Str_To_Lcd proc
  59  0000  0008[           local _Str_To_Lcd_2 db 8 dup(?)	; 4,4
            00
            ]
  59  0008              #pragma debug pointer 42 7 4
  59  0008              #pragma debug pointer 42 7 4
  59  0008              #pragma debug variable 42 4 _Str_To_Lcd_2+0 "pData"
  59  0008              #pragma debug variable 12 4 _Str_To_Lcd_2+2 "count"
  59  0000  0700     R  	mov a,_Str_To_Lcd_2[0]
"File: holtek_lcd.c  Assembler  Version HGASM0202      Page 5

  59  0001  0080     R  	mov _Str_To_Lcd_2[4],a
  59  0002  0700     R  	mov a,_Str_To_Lcd_2[1]
  59  0003  0080     R  	mov _Str_To_Lcd_2[5],a
  59  0004  0700     R  	mov a,_Str_To_Lcd_2[2]
  59  0005  0300     R  	add a,_Str_To_Lcd_2[4]
  59  0006  0080     R  	mov _Str_To_Lcd_2[6],a
  59  0007  0700     R  	mov a,_Str_To_Lcd_2[3]
  59  0008  1300     R  	adc a,_Str_To_Lcd_2[5]
  59  0009  0080     R  	mov _Str_To_Lcd_2[7],a
  60  000A              #line 60 "C:\Users\L0614\Desktop\Holtek\Holtek-HT66F70A-LCD\holtek_lcd\holtek_lcd\holtek_lcd.c"
  60  000A  2800     R  	jmp _L4
  60  000B              _L5:
  62  000B              #line 62 "C:\Users\L0614\Desktop\Holtek\Holtek-HT66F70A-LCD\holtek_lcd\holtek_lcd\holtek_lcd.c"
  62  000B  0700     R  	mov a,_Str_To_Lcd_2[4]
  62  000C  0083        	mov mp,a
  62  000D  0700     R  	mov a,_Str_To_Lcd_2[5]
  62  000E  0081        	mov sbp,a
  62  000F  2000     E  	call _Crom2Prom
  62  0010  0080     R  	mov _LCD_Write_2[0],a
  62  0011  0F01        	mov a,1
  62  0012  2000     R  	call _LCD_Write
  62  0013  1480     R  	inc _Str_To_Lcd_2[4]
  62  0014  3D0A        	sz z
  62  0015  1480     R  	inc _Str_To_Lcd_2[5]
  62  0016              _L4:
  60  0016              #line 60 "C:\Users\L0614\Desktop\Holtek\Holtek-HT66F70A-LCD\holtek_lcd\holtek_lcd\holtek_lcd.c"
  60  0016  0700     R  	mov a,_Str_To_Lcd_2[4]
  60  0017  0400     R  	xor a,_Str_To_Lcd_2[6]
  60  0018  0700     R  	mov a,_Str_To_Lcd_2[5]
  60  0019  3D0A        	sz z
  60  001A  0400     R  	xor a,_Str_To_Lcd_2[7]
  60  001B  390A        	snz z
  60  001C  2800     R  	jmp _L5
  60  001D  0003        	ret
  60  001E              _Str_To_Lcd endp
  60  001E              #line 60 "C:\Users\L0614\Desktop\Holtek\Holtek-HT66F70A-LCD\holtek_lcd\holtek_lcd\holtek_lcd.c"
  60  001E              #pragma debug scope 1 1
  60  001E              public _PAUSE
  60  001E              #pragma debug scope 5 1
  54  001E              #line 54 "C:\Users\L0614\Desktop\Holtek\Holtek-HT66F70A-LCD\holtek_lcd\holtek_lcd\holtek_lcd.c"
  54  0000              _PAUSE .section 'code'
  54  0000              _PAUSE proc
  54  0000              public _PAUSE_2
  54  0000  0002[           local _PAUSE_2 db 2 dup(?)	; 2,0
            00
            ]
  54  0002              #pragma debug variable 10 5 _PAUSE_2+0 "i"
  55  0002              #line 55 "C:\Users\L0614\Desktop\Holtek\Holtek-HT66F70A-LCD\holtek_lcd\holtek_lcd\holtek_lcd.c"
  55  0000  1F00     E  	clr rb
  55  0001  1F00     E  	clr rc
  55  0002  2800     R  	jmp _L8
  55  0003              _L9:
  55  0003              #line 55 "C:\Users\L0614\Desktop\Holtek\Holtek-HT66F70A-LCD\holtek_lcd\holtek_lcd\holtek_lcd.c"
  55  0003              ;# 55 "C:\Users\L0614\Desktop\Holtek\Holtek-HT66F70A-LCD\holtek_lcd\holtek_lcd\holtek_lcd.c" 1
  55  0003              	IF 10000>263690
  55  0003              ;# 55 "C:\Users\L0614\Desktop\Holtek\Holtek-HT66F70A-LCD\holtek_lcd\holtek_lcd\holtek_lcd.c" 1
  55  0003              	ERRMESSAGE 'the value 10000of the argument exceeds the maxinum 263690'
  55  0003              	ENDIF
  55  0003              ;# 55 "C:\Users\L0614\Desktop\Holtek\Holtek-HT66F70A-LCD\holtek_lcd\holtek_lcd\holtek_lcd.c" 1
  55  0003              	IF 10000<0
"File: holtek_lcd.c  Assembler  Version HGASM0202      Page 6

  55  0003              ;# 55 "C:\Users\L0614\Desktop\Holtek\Holtek-HT66F70A-LCD\holtek_lcd\holtek_lcd\holtek_lcd.c" 1
  55  0003              	ERRMESSAGE 'the value 10000 of the argument exceeds the mininum 0'
  55  0003              	ENDIF
  55  0003              ;# 55 "C:\Users\L0614\Desktop\Holtek\Holtek-HT66F70A-LCD\holtek_lcd\holtek_lcd\holtek_lcd.c" 1
  55  0003              	IF 10000==0
  55  0003              ;# 55 "C:\Users\L0614\Desktop\Holtek\Holtek-HT66F70A-LCD\holtek_lcd\holtek_lcd\holtek_lcd.c" 1
  55  0003              	JMP $
  55  0003              	ENDIF
  55  0003              ;# 55 "C:\Users\L0614\Desktop\Holtek\Holtek-HT66F70A-LCD\holtek_lcd\holtek_lcd\holtek_lcd.c" 1
  55  0003              	IF 10000==1
  55  0003              ;# 55 "C:\Users\L0614\Desktop\Holtek\Holtek-HT66F70A-LCD\holtek_lcd\holtek_lcd\holtek_lcd.c" 1
  55  0003              	NOP
  55  0003              	ENDIF
  55  0003              ;# 55 "C:\Users\L0614\Desktop\Holtek\Holtek-HT66F70A-LCD\holtek_lcd\holtek_lcd\holtek_lcd.c" 1
  55  0003              	IF 10000==2
  55  0003              ;# 55 "C:\Users\L0614\Desktop\Holtek\Holtek-HT66F70A-LCD\holtek_lcd\holtek_lcd\holtek_lcd.c" 1
  55  0003              	NOP
  55  0003              ;# 55 "C:\Users\L0614\Desktop\Holtek\Holtek-HT66F70A-LCD\holtek_lcd\holtek_lcd\holtek_lcd.c" 1
  55  0003              	NOP
  55  0003              	ENDIF
  55  0003              ;# 55 "C:\Users\L0614\Desktop\Holtek\Holtek-HT66F70A-LCD\holtek_lcd\holtek_lcd\holtek_lcd.c" 1
  55  0003              	IF 10000==3
  55  0003              ;# 55 "C:\Users\L0614\Desktop\Holtek\Holtek-HT66F70A-LCD\holtek_lcd\holtek_lcd\holtek_lcd.c" 1
  55  0003              	NOP
  55  0003              ;# 55 "C:\Users\L0614\Desktop\Holtek\Holtek-HT66F70A-LCD\holtek_lcd\holtek_lcd\holtek_lcd.c" 1
  55  0003              	NOP
  55  0003              ;# 55 "C:\Users\L0614\Desktop\Holtek\Holtek-HT66F70A-LCD\holtek_lcd\holtek_lcd\holtek_lcd.c" 1
  55  0003              	NOP
  55  0003              	ENDIF
  55  0003              ;# 55 "C:\Users\L0614\Desktop\Holtek\Holtek-HT66F70A-LCD\holtek_lcd\holtek_lcd\holtek_lcd.c" 1
  55  0003              	IF (10000<8) AND (10000>3)
  55  0003              ;# 55 "C:\Users\L0614\Desktop\Holtek\Holtek-HT66F70A-LCD\holtek_lcd\holtek_lcd\holtek_lcd.c" 1
  55  0003              	CALL __DELAY3 + 7 -10000
  55  0003              	ENDIF
  55  0003              ;# 55 "C:\Users\L0614\Desktop\Holtek\Holtek-HT66F70A-LCD\holtek_lcd\holtek_lcd\holtek_lcd.c" 1
  55  0003              	IF (10000< 0404h) AND (10000>7)
  55  0003              ;# 55 "C:\Users\L0614\Desktop\Holtek\Holtek-HT66F70A-LCD\holtek_lcd\holtek_lcd\holtek_lcd.c" 1
  55  0003              	MOV A,10000/4-1
  55  0003              ;# 55 "C:\Users\L0614\Desktop\Holtek\Holtek-HT66F70A-LCD\holtek_lcd\holtek_lcd\holtek_lcd.c" 1
  55  0003              	CALL __DELAYX3 + 3 -(10000 MOD 4)
  55  0003              	ENDIF
  55  0003              ;# 55 "C:\Users\L0614\Desktop\Holtek\Holtek-HT66F70A-LCD\holtek_lcd\holtek_lcd\holtek_lcd.c" 1
  55  0003              	IF (10000< 0x40B) AND (10000> 0403h)
  55  0003              ;# 55 "C:\Users\L0614\Desktop\Holtek\Holtek-HT66F70A-LCD\holtek_lcd\holtek_lcd\holtek_lcd.c" 1
  55  0003              	MOV A,0 
  55  0003              ;# 55 "C:\Users\L0614\Desktop\Holtek\Holtek-HT66F70A-LCD\holtek_lcd\holtek_lcd\holtek_lcd.c" 1
  55  0003              	CALL __DELAYX6 + 0x40a -10000
  55  0003              	ENDIF
  55  0003              ;# 55 "C:\Users\L0614\Desktop\Holtek\Holtek-HT66F70A-LCD\holtek_lcd\holtek_lcd\holtek_lcd.c" 1
  55  0003              	IF (10000 >= 0x40b) AND ((((10000-9)%0402h)/4+1)>256)
  55  0003              ;# 55 "C:\Users\L0614\Desktop\Holtek\Holtek-HT66F70A-LCD\holtek_lcd\holtek_lcd\holtek_lcd.c" 1
  55  0003              	MOV A,(10000-9)/0402h
  55  0003              ;# 55 "C:\Users\L0614\Desktop\Holtek\Holtek-HT66F70A-LCD\holtek_lcd\holtek_lcd\holtek_lcd.c" 1
  55  0003              	MOV _builtin_holtek_delay_2,A
  55  0003              ;# 55 "C:\Users\L0614\Desktop\Holtek\Holtek-HT66F70A-LCD\holtek_lcd\holtek_lcd\holtek_lcd.c" 1
  55  0003              	MOV A,0
  55  0003              ;# 55 "C:\Users\L0614\Desktop\Holtek\Holtek-HT66F70A-LCD\holtek_lcd\holtek_lcd\holtek_lcd.c" 1
  55  0003              	CALL __DELAYY5 +5- (((10000-9)%0402h)%6)
  55  0003              	ENDIF
  55  0003              ;# 55 "C:\Users\L0614\Desktop\Holtek\Holtek-HT66F70A-LCD\holtek_lcd\holtek_lcd\holtek_lcd.c" 1
"File: holtek_lcd.c  Assembler  Version HGASM0202      Page 7

  55  0003              	IF (10000 >= 0x40b) AND ((((10000-9)%0402h)/4+1)<=256)
  55  0003              ;# 55 "C:\Users\L0614\Desktop\Holtek\Holtek-HT66F70A-LCD\holtek_lcd\holtek_lcd\holtek_lcd.c" 1
  55  0003  0F09        	MOV A,(10000-9)/0402h
  55  0004              ;# 55 "C:\Users\L0614\Desktop\Holtek\Holtek-HT66F70A-LCD\holtek_lcd\holtek_lcd\holtek_lcd.c" 1
  55  0004  0080     E  	MOV _builtin_holtek_delay_2,A
  55  0005              ;# 55 "C:\Users\L0614\Desktop\Holtek\Holtek-HT66F70A-LCD\holtek_lcd\holtek_lcd\holtek_lcd.c" 1
  55  0005  0FBE        	MOV A,((10000-9)%0402h)/4+1
  55  0006              ;# 55 "C:\Users\L0614\Desktop\Holtek\Holtek-HT66F70A-LCD\holtek_lcd\holtek_lcd\holtek_lcd.c" 1
  55  0006  2000     E  	CALL __DELAYY3 +3-(((10000-9)%0402h)%4)
  55  0007              	ENDIF
  55  0007  1480     E  	inc rb
  55  0008  3D0A        	sz z
  55  0009  1480     E  	inc rc
  55  000A              _L8:
  55  000A  0700     E  	mov a,rb
  55  000B  0400     R  	xor a,_PAUSE_2[0]
  55  000C  0700     E  	mov a,rc
  55  000D  3D0A        	sz z
  55  000E  0400     R  	xor a,_PAUSE_2[1]
  55  000F  390A        	snz z
  55  0010  2800     R  	jmp _L9
  55  0011  0003        	ret
  55  0012              _PAUSE endp
  55  0012              #line 55 "C:\Users\L0614\Desktop\Holtek\Holtek-HT66F70A-LCD\holtek_lcd\holtek_lcd\holtek_lcd.c"
  55  0012              #pragma debug scope 1 1
  55  0012              public _Lcd_Write_String
  55  0012              #pragma debug scope 6 1
  66  0012              #line 66 "C:\Users\L0614\Desktop\Holtek\Holtek-HT66F70A-LCD\holtek_lcd\holtek_lcd\holtek_lcd.c"
  66  0000              _Lcd_Write_String .section 'code'
  66  0000              _Lcd_Write_String proc
  66  0000              public _Lcd_Write_String_2
  66  0000  0006[           local _Lcd_Write_String_2 db 6 dup(?)	; 6,0
            00
            ]
  66  0006              #pragma debug variable 12 6 _Lcd_Write_String_2+0 "line"
  66  0006              #pragma debug variable 12 6 _Lcd_Write_String_2+2 "col"
  66  0006              #pragma debug pointer 43 7 6
  66  0006              #pragma debug pointer 43 7 6
  66  0006              #pragma debug variable 43 6 _Lcd_Write_String_2+4 "pText"
  67  0006              #line 67 "C:\Users\L0614\Desktop\Holtek\Holtek-HT66F70A-LCD\holtek_lcd\holtek_lcd\holtek_lcd.c"
  67  0000  0700     R  	mov a,_Lcd_Write_String_2[0]
  67  0001  0C01        	xor a,1
  67  0002  0500     R  	or a,_Lcd_Write_String_2[1]
  67  0003  390A        	snz z
  67  0004  2800     R  	jmp _L11
  67  0005              #line 67 "C:\Users\L0614\Desktop\Holtek\Holtek-HT66F70A-LCD\holtek_lcd\holtek_lcd\holtek_lcd.c"
  67  0005  0700     R  	mov a,_Lcd_Write_String_2[2]
  67  0006  0B80        	add a,128
  67  0007  0080     R  	mov _LCD_Write_2[0],a
  67  0008  2800     R  	jmp _L13
  67  0009              _L11:
  68  0009              #line 68 "C:\Users\L0614\Desktop\Holtek\Holtek-HT66F70A-LCD\holtek_lcd\holtek_lcd\holtek_lcd.c"
  68  0009  0700     R  	mov a,_Lcd_Write_String_2[0]
  68  000A  0C02        	xor a,2
  68  000B  0500     R  	or a,_Lcd_Write_String_2[1]
  68  000C  390A        	snz z
  68  000D  2800     R  	jmp _L12
  68  000E  0700     R  	mov a,_Lcd_Write_String_2[2]
  68  000F  0BC0        	add a,192
  68  0010  0080     R  	mov _LCD_Write_2[0],a
"File: holtek_lcd.c  Assembler  Version HGASM0202      Page 8

  68  0011              _L13:
  68  0011  0F00        	mov a,0
  68  0012  2000     R  	call _LCD_Write
  68  0013              _L12:
  69  0013              #line 69 "C:\Users\L0614\Desktop\Holtek\Holtek-HT66F70A-LCD\holtek_lcd\holtek_lcd\holtek_lcd.c"
  69  0013  0700     R  	mov a,_Lcd_Write_String_2[4]
  69  0014  0080     E  	mov _strlen_2[0],a
  69  0015  0700     R  	mov a,_Lcd_Write_String_2[5]
  69  0016  0080     E  	mov _strlen_2[1],a
  69  0017  2000     E  	call _strlen
  69  0018  0700     E  	mov a,ra
  69  0019  0080     R  	mov _Str_To_Lcd_2[2],a
  69  001A  0700     E  	mov a,rb
  69  001B  0080     R  	mov _Str_To_Lcd_2[3],a
  69  001C  0700     R  	mov a,_Lcd_Write_String_2[4]
  69  001D  0080     R  	mov _Str_To_Lcd_2[0],a
  69  001E  0700     R  	mov a,_Lcd_Write_String_2[5]
  69  001F  0080     R  	mov _Str_To_Lcd_2[1],a
  69  0020  2000     R  	call _Str_To_Lcd
  69  0021  0003        	ret
  69  0022              _Lcd_Write_String endp
  69  0022              #line 69 "C:\Users\L0614\Desktop\Holtek\Holtek-HT66F70A-LCD\holtek_lcd\holtek_lcd\holtek_lcd.c"
  69  0022              #pragma debug scope 1 1
  69  0000              @crom	.section 'crom'
  69  0000              _LC0:
  69  0000              	db 053h,00h
  69  0001              public _main
  69  0001              #pragma debug scope 7 1
  17  0001              #line 17 "C:\Users\L0614\Desktop\Holtek\Holtek-HT66F70A-LCD\holtek_lcd\holtek_lcd\holtek_lcd.c"
  17  0001              IFDEF WITH_DEFAULT_STARTUP
  17  0001              extern _main_initial0:near
  17  0001              extern _main_startup:near
  17  0001              ENDIF
  17  0001              
  17  0001              ROMBANK 0 @start
  17  0000              @start .section com_l 'code'
  17  0000              _main_startup1:
  17  0000              @start .section com_e 'code'
  17  0000  2800     R  	jmp _main
  17  0001              
  17  0000              _main .section 'code'
  17  0000              _main proc
  17  0000  0002[           local _main_2 db 2 dup(?)
            00
            ]
  17  0002              #pragma debug variable 10 7 _main_2+0 "i"
  18  0002              #line 18 "C:\Users\L0614\Desktop\Holtek\Holtek-HT66F70A-LCD\holtek_lcd\holtek_lcd\holtek_lcd.c"
  18  0000  2000     R  	call _LCD_Init
  18  0001              _L19:
  21  0001              #line 21 "C:\Users\L0614\Desktop\Holtek\Holtek-HT66F70A-LCD\holtek_lcd\holtek_lcd\holtek_lcd.c"
  21  0001  0F01        	mov a,1
  21  0002  0080     R  	mov _LCD_Write_2[0],a
  21  0003  0F00        	mov a,0
  21  0004  2000     R  	call _LCD_Write
  22  0005              #line 22 "C:\Users\L0614\Desktop\Holtek\Holtek-HT66F70A-LCD\holtek_lcd\holtek_lcd\holtek_lcd.c"
  22  0005  0F64        	mov a,100
  22  0006  0080     R  	mov _PAUSE_2[0],a
  22  0007  1F00     R  	clr _PAUSE_2[1]
  22  0008  2000     R  	call _PAUSE
  23  0009              #line 23 "C:\Users\L0614\Desktop\Holtek\Holtek-HT66F70A-LCD\holtek_lcd\holtek_lcd\holtek_lcd.c"
"File: holtek_lcd.c  Assembler  Version HGASM0202      Page 9

  23  0009  0F80        	mov a,128
  23  000A  0080     R  	mov _LCD_Write_2[0],a
  23  000B  0F00        	mov a,0
  23  000C  2000     R  	call _LCD_Write
  24  000D              #line 24 "C:\Users\L0614\Desktop\Holtek\Holtek-HT66F70A-LCD\holtek_lcd\holtek_lcd\holtek_lcd.c"
  24  000D  1F00     R  	clr _main_2[0]
  24  000E  1F00     R  	clr _main_2[1]
  24  000F              _L16:
  25  000F              #line 25 "C:\Users\L0614\Desktop\Holtek\Holtek-HT66F70A-LCD\holtek_lcd\holtek_lcd\holtek_lcd.c"
  25  000F  0F00     R  	mov a,low offset _LC0
  25  0010  0080     R  	mov _Lcd_Write_String_2[4],a
  25  0011  0F00     R  	mov a,high offset _LC0
  25  0012  0080     R  	mov _Lcd_Write_String_2[5],a
  25  0013  0700     R  	mov a,_main_2[0]
  25  0014  0080     R  	mov _Lcd_Write_String_2[2],a
  25  0015  0700     R  	mov a,_main_2[1]
  25  0016  0080     R  	mov _Lcd_Write_String_2[3],a
  25  0017  0F01        	mov a,1
  25  0018  0080     R  	mov _Lcd_Write_String_2[0],a
  25  0019  1F00     R  	clr _Lcd_Write_String_2[1]
  25  001A  2000     R  	call _Lcd_Write_String
  25  001B  0F0A        	mov a,10
  25  001C  0080     R  	mov _PAUSE_2[0],a
  25  001D  1F00     R  	clr _PAUSE_2[1]
  25  001E  2000     R  	call _PAUSE
  24  001F              #line 24 "C:\Users\L0614\Desktop\Holtek\Holtek-HT66F70A-LCD\holtek_lcd\holtek_lcd\holtek_lcd.c"
  24  001F  1480     R  	inc _main_2[0]
  24  0020  3D0A        	sz z
  24  0021  1480     R  	inc _main_2[1]
  24  0022  0700     R  	mov a,_main_2[0]
  24  0023  0C10        	xor a,16
  24  0024  0500     R  	or a,_main_2[1]
  24  0025  390A        	snz z
  24  0026  2800     R  	jmp _L16
  27  0027              #line 27 "C:\Users\L0614\Desktop\Holtek\Holtek-HT66F70A-LCD\holtek_lcd\holtek_lcd\holtek_lcd.c"
  27  0027  0FC0        	mov a,192
  27  0028  0080     R  	mov _LCD_Write_2[0],a
  27  0029  0F00        	mov a,0
  27  002A  2000     R  	call _LCD_Write
  27  002B  1F00     R  	clr _main_2[0]
  27  002C              _L18:
  29  002C              #line 29 "C:\Users\L0614\Desktop\Holtek\Holtek-HT66F70A-LCD\holtek_lcd\holtek_lcd\holtek_lcd.c"
  29  002C  0F32        	mov a,50
  29  002D  0080     R  	mov _LCD_Write_2[0],a
  29  002E  0F01        	mov a,1
  29  002F  2000     R  	call _LCD_Write
  29  0030  0F0A        	mov a,10
  29  0031  0080     R  	mov _PAUSE_2[0],a
  29  0032  1F00     R  	clr _PAUSE_2[1]
  29  0033  2000     R  	call _PAUSE
  29  0034  1480     R  	inc _main_2[0]
  28  0035              #line 28 "C:\Users\L0614\Desktop\Holtek\Holtek-HT66F70A-LCD\holtek_lcd\holtek_lcd\holtek_lcd.c"
  28  0035  0700     R  	mov a,_main_2[0]
  28  0036  0A10        	sub a,16
  28  0037  390A        	snz z
  28  0038  2800     R  	jmp _L18
  31  0039              #line 31 "C:\Users\L0614\Desktop\Holtek\Holtek-HT66F70A-LCD\holtek_lcd\holtek_lcd\holtek_lcd.c"
  31  0039  0F64        	mov a,100
  31  003A  0080     R  	mov _PAUSE_2[0],a
  31  003B  1F00     R  	clr _PAUSE_2[1]
"File: holtek_lcd.c  Assembler  Version HGASM0202      Page 10

  31  003C  2000     R  	call _PAUSE
  32  003D              #line 32 "C:\Users\L0614\Desktop\Holtek\Holtek-HT66F70A-LCD\holtek_lcd\holtek_lcd\holtek_lcd.c"
  32  003D  2800     R  	jmp _L19
  32  003E  2800     R  	jmp $
  32  003F              _main endp
  32  003F              
  32  003F              @dummy endp
  32  003F              
  32  003F              #line 32 "C:\Users\L0614\Desktop\Holtek\Holtek-HT66F70A-LCD\holtek_lcd\holtek_lcd\holtek_lcd.c"
  32  003F              #pragma debug scope 1 1
  32  003F              #pragma debug struct_end
  32  003F              #pragma debug struct_end
  32  003F              #pragma debug union_end
  32  003F              #pragma debug union_end
  32  003F              #pragma debug variable 45 1 ___pd "__pd" 1
  32  003F              #pragma debug struct_end
  32  003F              #pragma debug struct_end
  32  003F              #pragma debug union_end
  32  003F              #pragma debug union_end
  32  003F              #pragma debug variable 47 1 ___pdc "__pdc" 1
  32  003F              #pragma debug struct_end
  32  003F              #pragma debug struct_end
  32  003F              #pragma debug union_end
  32  003F              #pragma debug union_end
  32  003F              #pragma debug variable 49 1 ___pe "__pe" 1
  32  003F              #pragma debug struct_end
  32  003F              #pragma debug struct_end
  32  003F              #pragma debug union_end
  32  003F              #pragma debug union_end
  32  003F              #pragma debug variable 51 1 ___pec "__pec" 1
  17  003F              #line 17 "C:\Users\L0614\Desktop\Holtek\Holtek-HT66F70A-LCD\holtek_lcd\holtek_lcd\holtek_lcd.c"
  17  0000              @code .section at 0 'code'
  17  0000  2800     R  	jmp _main_startup1
  17  0001              
  17  0001              extern _strlen_2:byte
  17  0001              extern _strlen:near
  17  0001              
  17  0001              ; 
  17  0001              ; Generated by holtek-gcc v3.17, Tue Mar 27 13:12:42 2018
  17  0001              ; Rebuild 307
  17  0001              ; end of file


        0 Errors, 0